; Function Attrs: nounwind uwtable
define hidden ptr @avifDecoderCreate() local_unnamed_addr #0 {
  %1 = tail call ptr @avifAlloc(i64 noundef 440) #13
  %2 = icmp eq ptr %1, null
  br i1 %2, label %9, label %3

3:                                                ; preds = %0
  tail call void @llvm.memset.p0.i64(ptr noundef nonnull align 8 dereferenceable(440) %1, i8 0, i64 440, i1 false)
  %4 = getelementptr inbounds nuw i8, ptr %1, i64 4
  store i32 1, ptr %4, align 4
  %5 = getelementptr inbounds nuw i8, ptr %1, i64 28
  store i32 268435456, ptr %5, align 4
  %6 = getelementptr inbounds nuw i8, ptr %1, i64 32
  store i32 32768, ptr %6, align 8
  %7 = getelementptr inbounds nuw i8, ptr %1, i64 36
  store i32 2592000, ptr %7, align 4
  %8 = getelementptr inbounds nuw i8, ptr %1, i64 40
  store i32 7, ptr %8, align 8
  br label %9

9:                                                ; preds = %0, %3
  ret ptr %1
}